; Function Attrs: mustprogress nofree norecurse nosync nounwind memory(readwrite, inaccessiblemem: none) uwtable
define dso_local void @_ZN5clang6format19UnwrappedLineParser21setPreviousRBraceTypeENS0_9TokenTypeE(ptr nocapture noundef nonnull readonly align 8 dereferenceable(3592) %0, i8 noundef zeroext %1) local_unnamed_addr #6 align 2 {
  %3 = getelementptr inbounds nuw i8, ptr %0, i64 984
  %4 = load ptr, ptr %3, align 8
  br label %5

5:                                                ; preds = %6, %2
  %.pn.i = phi ptr [ %4, %2 ], [ %.0.i, %6 ]
  %.0.in.i = getelementptr inbounds nuw i8, ptr %.pn.i, i64 208
  %.0.i = load ptr, ptr %.0.in.i, align 8
  %.not.i = icmp eq ptr %.0.i, null
  br i1 %.not.i, label %_ZN5clang6format11FormatToken16setFinalizedTypeENS0_9TokenTypeE.exit, label %6

6:                                                ; preds = %5
  %7 = getelementptr inbounds nuw i8, ptr %.0.i, i64 16
  %8 = load i16, ptr %7, align 8
  switch i16 %8, label %_ZN5clang6format11FormatToken16setFinalizedTypeENS0_9TokenTypeE.exit [
    i16 4, label %5
    i16 25, label %9
  ]

9:                                                ; preds = %6
  %10 = getelementptr inbounds nuw i8, ptr %.0.i, i64 256
  %11 = getelementptr inbounds i8, ptr %.0.i, i64 296
  %12 = load i8, ptr %11, align 8
  %13 = trunc i8 %12 to i1
  %14 = load i32, ptr %10, align 8
  %15 = icmp eq i32 %14, 1
  %or.cond.i = select i1 %13, i1 %15, i1 false
  br i1 %or.cond.i, label %_ZN5clang6format11FormatToken16setFinalizedTypeENS0_9TokenTypeE.exit, label %16

16:                                               ; preds = %9
  %17 = getelementptr inbounds nuw i8, ptr %.0.i, i64 67
  store i8 %1, ptr %17, align 1
  %18 = getelementptr inbounds nuw i8, ptr %.0.i, i64 65
  %19 = load i16, ptr %18, align 1
  %20 = or i16 %19, 8192
  store i16 %20, ptr %18, align 1
  br label %_ZN5clang6format11FormatToken16setFinalizedTypeENS0_9TokenTypeE.exit

_ZN5clang6format11FormatToken16setFinalizedTypeENS0_9TokenTypeE.exit: ; preds = %5, %6, %16, %9
  ret void
}